target datalayout = "e-m:e-p270:32:32-p271:32:32-p272:64:64-i64:64-i128:128-f80:128-n8:16:32:64-S128"
target triple = "x86_64-unknown-linux-gnu"

%"class.arrow::io::FileInterface.base" = type <{ ptr, %"class.std::enable_shared_from_this", i32 }>
%"class.std::enable_shared_from_this" = type { %"class.std::weak_ptr" }
%"class.std::weak_ptr" = type { %"class.std::__weak_ptr" }
%"class.std::__weak_ptr" = type { ptr, %"class.std::__weak_count" }
%"class.std::__weak_count" = type { ptr }
%"class.std::__cxx11::basic_string" = type { %"struct.std::__cxx11::basic_string<char>::_Alloc_hider", i64, %union.anon }
%"struct.std::__cxx11::basic_string<char>::_Alloc_hider" = type { ptr }
%union.anon = type { i64, [8 x i8] }
%"class.std::mutex" = type { %"class.std::__mutex_base" }
%"class.std::__mutex_base" = type { %union.pthread_mutex_t }
%union.pthread_mutex_t = type { %struct.__pthread_mutex_s }
%struct.__pthread_mutex_s = type { i32, i32, i32, i32, i32, i16, i16, %struct.__pthread_internal_list }
%struct.__pthread_internal_list = type { ptr, ptr }
%"class.arrow::io::HdfsAnyFileImpl" = type <{ %"class.std::__cxx11::basic_string", ptr, %"class.std::mutex", ptr, ptr, i8, [7 x i8] }>
%"class.arrow::io::HdfsOutputStream" = type { %"class.arrow::io::OutputStream.base", %"class.std::unique_ptr.17", %"class.arrow::io::FileInterface.base" }
%"class.arrow::io::OutputStream.base" = type { %"class.arrow::io::Writable" }
%"class.arrow::io::Writable" = type { ptr }
%"class.std::unique_ptr.17" = type { %"struct.std::__uniq_ptr_data.18" }
%"struct.std::__uniq_ptr_data.18" = type { %"class.std::__uniq_ptr_impl.19" }
%"class.std::__uniq_ptr_impl.19" = type { %"class.std::tuple.20" }
%"class.std::tuple.20" = type { %"struct.std::_Tuple_impl.21" }
%"struct.std::_Tuple_impl.21" = type { %"struct.std::_Head_base.24" }
%"struct.std::_Head_base.24" = type { ptr }

; Function Attrs: mustprogress nounwind uwtable
define linkonce_odr hidden noundef nonnull align 8 dereferenceable(8) ptr @_ZNSt10_Head_baseILm0EPN5arrow2io16HdfsOutputStream20HdfsOutputStreamImplELb0EE7_M_headERKS5_(ptr noundef nonnull align 8 dereferenceable(8) %__b) #2 comdat align 2 {
entry:
  %__b.addr = alloca ptr, align 8
  store ptr %__b, ptr %__b.addr, align 8
  %0 = load ptr, ptr %__b.addr, align 8
  %_M_head_impl = getelementptr inbounds %"struct.std::_Head_base.24", ptr %0, i32 0, i32 0
  ret ptr %_M_head_impl
}

; Function Attrs: mustprogress nounwind uwtable
define linkonce_odr hidden noundef nonnull align 8 dereferenceable(8) ptr @_ZNSt11_Tuple_implILm0EJPN5arrow2io16HdfsOutputStream20HdfsOutputStreamImplESt14default_deleteIS3_EEE7_M_headERKS7_(ptr noundef nonnull align 8 dereferenceable(8) %__t) #2 comdat align 2 {
entry:
  %__t.addr = alloca ptr, align 8
  store ptr %__t, ptr %__t.addr, align 8
  %0 = load ptr, ptr %__t.addr, align 8
  %call = call noundef nonnull align 8 dereferenceable(8) ptr @_ZNSt10_Head_baseILm0EPN5arrow2io16HdfsOutputStream20HdfsOutputStreamImplELb0EE7_M_headERKS5_(ptr noundef nonnull align 8 dereferenceable(8) %0) #14
  ret ptr %call
}

; Function Attrs: mustprogress nounwind uwtable
define linkonce_odr hidden noundef nonnull align 8 dereferenceable(8) ptr @_ZSt12__get_helperILm0EPN5arrow2io16HdfsOutputStream20HdfsOutputStreamImplEJSt14default_deleteIS3_EEERKT0_RKSt11_Tuple_implIXT_EJS7_DpT1_EE(ptr noundef nonnull align 8 dereferenceable(8) %__t) #2 comdat {
entry:
  %__t.addr = alloca ptr, align 8
  store ptr %__t, ptr %__t.addr, align 8
  %0 = load ptr, ptr %__t.addr, align 8
  %call = call noundef nonnull align 8 dereferenceable(8) ptr @_ZNSt11_Tuple_implILm0EJPN5arrow2io16HdfsOutputStream20HdfsOutputStreamImplESt14default_deleteIS3_EEE7_M_headERKS7_(ptr noundef nonnull align 8 dereferenceable(8) %0) #14
  ret ptr %call
}

; Function Attrs: mustprogress nounwind uwtable
define linkonce_odr hidden noundef nonnull align 8 dereferenceable(8) ptr @_ZSt3getILm0EJPN5arrow2io16HdfsOutputStream20HdfsOutputStreamImplESt14default_deleteIS3_EEERKNSt13tuple_elementIXT_ESt5tupleIJDpT0_EEE4typeERKSB_(ptr noundef nonnull align 8 dereferenceable(8) %__t) #2 comdat {
entry:
  %__t.addr = alloca ptr, align 8
  store ptr %__t, ptr %__t.addr, align 8
  %0 = load ptr, ptr %__t.addr, align 8
  %call = call noundef nonnull align 8 dereferenceable(8) ptr @_ZSt12__get_helperILm0EPN5arrow2io16HdfsOutputStream20HdfsOutputStreamImplEJSt14default_deleteIS3_EEERKT0_RKSt11_Tuple_implIXT_EJS7_DpT1_EE(ptr noundef nonnull align 8 dereferenceable(8) %0) #14
  ret ptr %call
}

; Function Attrs: mustprogress nounwind uwtable
define linkonce_odr hidden noundef ptr @_ZNKSt15__uniq_ptr_implIN5arrow2io16HdfsOutputStream20HdfsOutputStreamImplESt14default_deleteIS3_EE6_M_ptrEv(ptr noundef nonnull align 8 dereferenceable(8) %this) #2 comdat align 2 {
entry:
  %this.addr = alloca ptr, align 8
  store ptr %this, ptr %this.addr, align 8
  %this1 = load ptr, ptr %this.addr, align 8
  %_M_t = getelementptr inbounds %"class.std::__uniq_ptr_impl.19", ptr %this1, i32 0, i32 0
  %call = call noundef nonnull align 8 dereferenceable(8) ptr @_ZSt3getILm0EJPN5arrow2io16HdfsOutputStream20HdfsOutputStreamImplESt14default_deleteIS3_EEERKNSt13tuple_elementIXT_ESt5tupleIJDpT0_EEE4typeERKSB_(ptr noundef nonnull align 8 dereferenceable(8) %_M_t) #14
  %0 = load ptr, ptr %call, align 8
  ret ptr %0
}

; Function Attrs: mustprogress nounwind uwtable
define linkonce_odr hidden noundef ptr @_ZNKSt10unique_ptrIN5arrow2io16HdfsOutputStream20HdfsOutputStreamImplESt14default_deleteIS3_EE3getEv(ptr noundef nonnull align 8 dereferenceable(8) %this) #2 comdat align 2 {
entry:
  %this.addr = alloca ptr, align 8
  store ptr %this, ptr %this.addr, align 8
  %this1 = load ptr, ptr %this.addr, align 8
  %_M_t = getelementptr inbounds %"class.std::unique_ptr.17", ptr %this1, i32 0, i32 0
  %call = call noundef ptr @_ZNKSt15__uniq_ptr_implIN5arrow2io16HdfsOutputStream20HdfsOutputStreamImplESt14default_deleteIS3_EE6_M_ptrEv(ptr noundef nonnull align 8 dereferenceable(8) %_M_t) #14
  ret ptr %call
}

; Function Attrs: mustprogress nounwind uwtable
define linkonce_odr hidden noundef zeroext i1 @_ZNK5arrow2io16HdfsOutputStream20HdfsOutputStreamImpl6closedEv(ptr noundef nonnull align 8 dereferenceable(97) %this) #2 comdat align 2 {
entry:
  %this.addr = alloca ptr, align 8
  store ptr %this, ptr %this.addr, align 8
  %this1 = load ptr, ptr %this.addr, align 8
  %is_open_ = getelementptr inbounds %"class.arrow::io::HdfsAnyFileImpl", ptr %this1, i32 0, i32 5
  %0 = load i8, ptr %is_open_, align 8
  %tobool = trunc i8 %0 to i1
  %lnot = xor i1 %tobool, true
  ret i1 %lnot
}

; Function Attrs: mustprogress nounwind uwtable
define linkonce_odr hidden noundef ptr @_ZNKSt10unique_ptrIN5arrow2io16HdfsOutputStream20HdfsOutputStreamImplESt14default_deleteIS3_EEptEv(ptr noundef nonnull align 8 dereferenceable(8) %this) #2 comdat align 2 {
entry:
  %this.addr = alloca ptr, align 8
  store ptr %this, ptr %this.addr, align 8
  %this1 = load ptr, ptr %this.addr, align 8
  %call = call noundef ptr @_ZNKSt10unique_ptrIN5arrow2io16HdfsOutputStream20HdfsOutputStreamImplESt14default_deleteIS3_EE3getEv(ptr noundef nonnull align 8 dereferenceable(8) %this1) #14
  ret ptr %call
}

; Function Attrs: mustprogress uwtable
define noundef zeroext i1 @_ZNK5arrow2io16HdfsOutputStream6closedEv(ptr noundef nonnull align 8 dereferenceable(16) %this) unnamed_addr #0 align 2 {
entry:
  %this.addr = alloca ptr, align 8
  store ptr %this, ptr %this.addr, align 8
  %this1 = load ptr, ptr %this.addr, align 8
  %impl_ = getelementptr inbounds %"class.arrow::io::HdfsOutputStream", ptr %this1, i32 0, i32 1
  %call = call noundef ptr @_ZNKSt10unique_ptrIN5arrow2io16HdfsOutputStream20HdfsOutputStreamImplESt14default_deleteIS3_EEptEv(ptr noundef nonnull align 8 dereferenceable(8) %impl_) #14
  %call2 = call noundef zeroext i1 @_ZNK5arrow2io16HdfsOutputStream20HdfsOutputStreamImpl6closedEv(ptr noundef nonnull align 8 dereferenceable(97) %call)
  ret i1 %call2
}