; Function Attrs: mustprogress nofree norecurse nosync nounwind willreturn memory(read, inaccessiblemem: none) uwtable
define noundef zeroext i1 @_ZNK5arrow2io16HdfsOutputStream6closedEv(ptr nocapture noundef nonnull readonly align 8 dereferenceable(16) %this) unnamed_addr #9 align 2 {
entry:
  %impl_ = getelementptr inbounds i8, ptr %this, i64 8
  %0 = load ptr, ptr %impl_, align 8
  %is_open_.i = getelementptr inbounds i8, ptr %0, i64 96
  %1 = load i8, ptr %is_open_.i, align 8
  %2 = and i8 %1, 1
  %tobool.not.i = icmp eq i8 %2, 0
  ret i1 %tobool.not.i
}